target datalayout = "e-m:e-p270:32:32-p271:32:32-p272:64:64-i64:64-i128:128-f80:128-n8:16:32:64-S128"
target triple = "x86_64-pc-linux-gnu"

%struct._ir_ctx = type { ptr, i32, i32, i32, i32, i32, i32, i32, i32, i32, i32, %struct._ir_insn, ptr, ptr, ptr, i32, i32, i32, ptr, ptr, ptr, ptr, ptr, ptr, i32, i32, i64, i32, i32, i32, i64, i32, i32, i32, i32, ptr, ptr, ptr, ptr, ptr, ptr, %union.anon.13, ptr, i32, i32, i32, i64, i32, i32, i32, ptr, ptr, ptr, ptr, %struct._ir_strtab, [61 x i32], [14 x i32] }
%struct._ir_insn = type { %struct.anon, %union.anon.5 }
%struct.anon = type { %union.anon, %union.anon.4 }
%union.anon = type { i32 }
%union.anon.4 = type { i32 }
%union.anon.5 = type { %union._ir_val }
%union._ir_val = type { double }
%union.anon.13 = type { ptr }
%struct._ir_strtab = type { ptr, i32, i32, i32, i32, ptr, i32, i32 }
%struct.anon.0 = type { %union.anon.1, %union.anon.3 }
%union.anon.1 = type { i16 }
%union.anon.3 = type { i16 }
%struct.anon.2 = type { i8, i8 }
%struct._ir_block = type { i32, i32, i32, i32, i32, i32, i32, %union.anon.14, %union.anon.15, i32, i32, i32, i32 }
%union.anon.14 = type { i32 }
%union.anon.15 = type { i32 }

; Function Attrs: nounwind uwtable
define internal i32 @_ir_skip_empty_blocks(ptr noundef %0, i32 noundef %1) #0 {
  %3 = alloca i32, align 4
  %4 = alloca ptr, align 8
  %5 = alloca i32, align 4
  %6 = alloca ptr, align 8
  %7 = alloca i32, align 4
  store ptr %0, ptr %4, align 8, !tbaa !4
  store i32 %1, ptr %5, align 4, !tbaa !32
  br label %8

8:                                                ; preds = %2, %35
  call void @llvm.lifetime.start.p0(i64 8, ptr %6) #12
  %9 = load ptr, ptr %4, align 8, !tbaa !4
  %10 = getelementptr inbounds nuw %struct._ir_ctx, ptr %9, i32 0, i32 18
  %11 = load ptr, ptr %10, align 8, !tbaa !29
  %12 = load i32, ptr %5, align 4, !tbaa !32
  %13 = zext i32 %12 to i64
  %14 = getelementptr inbounds nuw %struct._ir_block, ptr %11, i64 %13
  store ptr %14, ptr %6, align 8, !tbaa !52
  %15 = load ptr, ptr %6, align 8, !tbaa !52
  %16 = getelementptr inbounds nuw %struct._ir_block, ptr %15, i32 0, i32 0
  %17 = load i32, ptr %16, align 4, !tbaa !64
  %18 = and i32 %17, 70
  %19 = icmp eq i32 %18, 64
  br i1 %19, label %20, label %30

20:                                               ; preds = %8
  %21 = load ptr, ptr %4, align 8, !tbaa !4
  %22 = getelementptr inbounds nuw %struct._ir_ctx, ptr %21, i32 0, i32 19
  %23 = load ptr, ptr %22, align 8, !tbaa !30
  %24 = load ptr, ptr %6, align 8, !tbaa !52
  %25 = getelementptr inbounds nuw %struct._ir_block, ptr %24, i32 0, i32 3
  %26 = load i32, ptr %25, align 4, !tbaa !57
  %27 = zext i32 %26 to i64
  %28 = getelementptr inbounds nuw i32, ptr %23, i64 %27
  %29 = load i32, ptr %28, align 4, !tbaa !32
  store i32 %29, ptr %5, align 4, !tbaa !32
  br label %32

30:                                               ; preds = %8
  %31 = load i32, ptr %5, align 4, !tbaa !32
  store i32 %31, ptr %3, align 4
  store i32 1, ptr %7, align 4
  br label %33

32:                                               ; preds = %20
  store i32 0, ptr %7, align 4
  br label %33

33:                                               ; preds = %32, %30
  call void @llvm.lifetime.end.p0(i64 8, ptr %6) #12
  %34 = load i32, ptr %7, align 4
  switch i32 %34, label %38 [
    i32 0, label %35
    i32 1, label %36
  ]

35:                                               ; preds = %33
  br label %8

36:                                               ; preds = %33
  %37 = load i32, ptr %3, align 4
  ret i32 %37

38:                                               ; preds = %33
  unreachable
}

; Function Attrs: nounwind uwtable
define hidden i32 @ir_skip_empty_target_blocks(ptr noundef %0, i32 noundef %1) #0 {
  %3 = alloca ptr, align 8
  %4 = alloca i32, align 4
  store ptr %0, ptr %3, align 8, !tbaa !4
  store i32 %1, ptr %4, align 4, !tbaa !32
  %5 = load ptr, ptr %3, align 8, !tbaa !4
  %6 = load i32, ptr %4, align 4, !tbaa !32
  %7 = call i32 @_ir_skip_empty_blocks(ptr noundef %5, i32 noundef %6)
  ret i32 %7
}

; Function Attrs: nounwind uwtable
define hidden void @ir_get_true_false_blocks(ptr noundef %0, i32 noundef %1, ptr noundef %2, ptr noundef %3) #0 {
  %5 = alloca ptr, align 8
  %6 = alloca i32, align 4
  %7 = alloca ptr, align 8
  %8 = alloca ptr, align 8
  %9 = alloca ptr, align 8
  %10 = alloca ptr, align 8
  %11 = alloca i32, align 4
  store ptr %0, ptr %5, align 8, !tbaa !4
  store i32 %1, ptr %6, align 4, !tbaa !32
  store ptr %2, ptr %7, align 8, !tbaa !37
  store ptr %3, ptr %8, align 8, !tbaa !37
  call void @llvm.lifetime.start.p0(i64 8, ptr %9) #12
  call void @llvm.lifetime.start.p0(i64 8, ptr %10) #12
  call void @llvm.lifetime.start.p0(i64 4, ptr %11) #12
  %12 = load ptr, ptr %7, align 8, !tbaa !37
  store i32 0, ptr %12, align 4, !tbaa !32
  %13 = load ptr, ptr %8, align 8, !tbaa !37
  store i32 0, ptr %13, align 4, !tbaa !32
  %14 = load ptr, ptr %5, align 8, !tbaa !4
  %15 = getelementptr inbounds nuw %struct._ir_ctx, ptr %14, i32 0, i32 18
  %16 = load ptr, ptr %15, align 8, !tbaa !29
  %17 = load i32, ptr %6, align 4, !tbaa !32
  %18 = zext i32 %17 to i64
  %19 = getelementptr inbounds nuw %struct._ir_block, ptr %16, i64 %18
  store ptr %19, ptr %9, align 8, !tbaa !52
  %20 = load ptr, ptr %5, align 8, !tbaa !4
  %21 = getelementptr inbounds nuw %struct._ir_ctx, ptr %20, i32 0, i32 19
  %22 = load ptr, ptr %21, align 8, !tbaa !30
  %23 = load ptr, ptr %9, align 8, !tbaa !52
  %24 = getelementptr inbounds nuw %struct._ir_block, ptr %23, i32 0, i32 3
  %25 = load i32, ptr %24, align 4, !tbaa !57
  %26 = zext i32 %25 to i64
  %27 = getelementptr inbounds nuw i32, ptr %22, i64 %26
  store ptr %27, ptr %10, align 8, !tbaa !37
  %28 = load ptr, ptr %10, align 8, !tbaa !37
  %29 = load i32, ptr %28, align 4, !tbaa !32
  store i32 %29, ptr %11, align 4, !tbaa !32
  %30 = load ptr, ptr %5, align 8, !tbaa !4
  %31 = getelementptr inbounds nuw %struct._ir_ctx, ptr %30, i32 0, i32 0
  %32 = load ptr, ptr %31, align 8, !tbaa !38
  %33 = load ptr, ptr %5, align 8, !tbaa !4
  %34 = getelementptr inbounds nuw %struct._ir_ctx, ptr %33, i32 0, i32 18
  %35 = load ptr, ptr %34, align 8, !tbaa !29
  %36 = load i32, ptr %11, align 4, !tbaa !32
  %37 = zext i32 %36 to i64
  %38 = getelementptr inbounds nuw %struct._ir_block, ptr %35, i64 %37
  %39 = getelementptr inbounds nuw %struct._ir_block, ptr %38, i32 0, i32 1
  %40 = load i32, ptr %39, align 4, !tbaa !54
  %41 = sext i32 %40 to i64
  %42 = getelementptr inbounds %struct._ir_insn, ptr %32, i64 %41
  %43 = getelementptr inbounds nuw %struct._ir_insn, ptr %42, i32 0, i32 0
  %44 = getelementptr inbounds nuw %struct.anon, ptr %43, i32 0, i32 0
  %45 = getelementptr inbounds nuw %struct.anon.0, ptr %44, i32 0, i32 0
  %46 = getelementptr inbounds nuw %struct.anon.2, ptr %45, i32 0, i32 0
  %47 = load i8, ptr %46, align 8, !tbaa !39
  %48 = zext i8 %47 to i32
  %49 = icmp eq i32 %48, 94
  br i1 %49, label %50, label %62

50:                                               ; preds = %4
  %51 = load ptr, ptr %5, align 8, !tbaa !4
  %52 = load i32, ptr %11, align 4, !tbaa !32
  %53 = call i32 @ir_skip_empty_target_blocks(ptr noundef %51, i32 noundef %52)
  %54 = load ptr, ptr %7, align 8, !tbaa !37
  store i32 %53, ptr %54, align 4, !tbaa !32
  %55 = load ptr, ptr %10, align 8, !tbaa !37
  %56 = getelementptr inbounds i32, ptr %55, i64 1
  %57 = load i32, ptr %56, align 4, !tbaa !32
  store i32 %57, ptr %11, align 4, !tbaa !32
  %58 = load ptr, ptr %5, align 8, !tbaa !4
  %59 = load i32, ptr %11, align 4, !tbaa !32
  %60 = call i32 @ir_skip_empty_target_blocks(ptr noundef %58, i32 noundef %59)
  %61 = load ptr, ptr %8, align 8, !tbaa !37
  store i32 %60, ptr %61, align 4, !tbaa !32
  br label %74

62:                                               ; preds = %4
  %63 = load ptr, ptr %5, align 8, !tbaa !4
  %64 = load i32, ptr %11, align 4, !tbaa !32
  %65 = call i32 @ir_skip_empty_target_blocks(ptr noundef %63, i32 noundef %64)
  %66 = load ptr, ptr %8, align 8, !tbaa !37
  store i32 %65, ptr %66, align 4, !tbaa !32
  %67 = load ptr, ptr %10, align 8, !tbaa !37
  %68 = getelementptr inbounds i32, ptr %67, i64 1
  %69 = load i32, ptr %68, align 4, !tbaa !32
  store i32 %69, ptr %11, align 4, !tbaa !32
  %70 = load ptr, ptr %5, align 8, !tbaa !4
  %71 = load i32, ptr %11, align 4, !tbaa !32
  %72 = call i32 @ir_skip_empty_target_blocks(ptr noundef %70, i32 noundef %71)
  %73 = load ptr, ptr %7, align 8, !tbaa !37
  store i32 %72, ptr %73, align 4, !tbaa !32
  br label %74

74:                                               ; preds = %62, %50
  call void @llvm.lifetime.end.p0(i64 4, ptr %11) #12
  call void @llvm.lifetime.end.p0(i64 8, ptr %10) #12
  call void @llvm.lifetime.end.p0(i64 8, ptr %9) #12
  ret void
}