; Function Attrs: nofree norecurse nosync nounwind memory(read, argmem: readwrite, inaccessiblemem: none) uwtable
define hidden void @ir_get_true_false_blocks(ptr noundef readonly captures(none) %0, i32 noundef %1, ptr noundef writeonly captures(none) initializes((0, 4)) %2, ptr noundef writeonly captures(none) initializes((0, 4)) %3) local_unnamed_addr #8 {
  store i32 0, ptr %2, align 4, !tbaa !35
  store i32 0, ptr %3, align 4, !tbaa !35
  %5 = getelementptr inbounds nuw i8, ptr %0, i64 104
  %6 = load ptr, ptr %5, align 8, !tbaa !27
  %7 = zext i32 %1 to i64
  %8 = getelementptr inbounds nuw i8, ptr %0, i64 112
  %9 = load ptr, ptr %8, align 8, !tbaa !28
  %10 = getelementptr inbounds nuw %struct._ir_block, ptr %6, i64 %7, i32 3
  %11 = load i32, ptr %10, align 4, !tbaa !46
  %12 = zext i32 %11 to i64
  %13 = getelementptr inbounds nuw i32, ptr %9, i64 %12
  %14 = load i32, ptr %13, align 4, !tbaa !35
  %15 = load ptr, ptr %0, align 8, !tbaa !32
  %16 = zext i32 %14 to i64
  %17 = getelementptr inbounds nuw %struct._ir_block, ptr %6, i64 %16, i32 1
  %18 = load i32, ptr %17, align 4, !tbaa !43
  %19 = sext i32 %18 to i64
  %20 = getelementptr inbounds %struct._ir_insn, ptr %15, i64 %19
  %21 = load i8, ptr %20, align 8, !tbaa !33
  %22 = icmp eq i8 %21, 94
  %23 = getelementptr inbounds nuw %struct._ir_block, ptr %6, i64 %16
  %24 = load i32, ptr %23, align 4, !tbaa !49
  %25 = and i32 %24, 70
  %.not14.i.i = icmp eq i32 %25, 64
  br i1 %22, label %26, label %53

26:                                               ; preds = %4
  br i1 %.not14.i.i, label %.lr.ph.i.i, label %ir_skip_empty_target_blocks.exit

.lr.ph.i.i:                                       ; preds = %26, %.lr.ph.i.i
  %27 = phi i64 [ %33, %.lr.ph.i.i ], [ %16, %26 ]
  %28 = getelementptr inbounds nuw %struct._ir_block, ptr %6, i64 %27, i32 3
  %29 = load i32, ptr %28, align 4, !tbaa !46
  %30 = zext i32 %29 to i64
  %31 = getelementptr inbounds nuw i32, ptr %9, i64 %30
  %32 = load i32, ptr %31, align 4, !tbaa !35
  %33 = zext i32 %32 to i64
  %34 = getelementptr inbounds nuw %struct._ir_block, ptr %6, i64 %33
  %35 = load i32, ptr %34, align 4, !tbaa !49
  %36 = and i32 %35, 70
  %.not.i.i = icmp eq i32 %36, 64
  br i1 %.not.i.i, label %.lr.ph.i.i, label %ir_skip_empty_target_blocks.exit

ir_skip_empty_target_blocks.exit:                 ; preds = %.lr.ph.i.i, %26
  %.08.lcssa.i.i = phi i32 [ %14, %26 ], [ %32, %.lr.ph.i.i ]
  store i32 %.08.lcssa.i.i, ptr %2, align 4, !tbaa !35
  %37 = getelementptr inbounds nuw i8, ptr %13, i64 4
  %38 = load i32, ptr %37, align 4, !tbaa !35
  %39 = zext i32 %38 to i64
  %40 = getelementptr inbounds nuw %struct._ir_block, ptr %6, i64 %39
  %41 = load i32, ptr %40, align 4, !tbaa !49
  %42 = and i32 %41, 70
  %.not14.i.i23 = icmp eq i32 %42, 64
  br i1 %.not14.i.i23, label %.lr.ph.i.i25, label %ir_skip_empty_target_blocks.exit27

.lr.ph.i.i25:                                     ; preds = %ir_skip_empty_target_blocks.exit, %.lr.ph.i.i25
  %43 = phi i64 [ %49, %.lr.ph.i.i25 ], [ %39, %ir_skip_empty_target_blocks.exit ]
  %44 = getelementptr inbounds nuw %struct._ir_block, ptr %6, i64 %43, i32 3
  %45 = load i32, ptr %44, align 4, !tbaa !46
  %46 = zext i32 %45 to i64
  %47 = getelementptr inbounds nuw i32, ptr %9, i64 %46
  %48 = load i32, ptr %47, align 4, !tbaa !35
  %49 = zext i32 %48 to i64
  %50 = getelementptr inbounds nuw %struct._ir_block, ptr %6, i64 %49
  %51 = load i32, ptr %50, align 4, !tbaa !49
  %52 = and i32 %51, 70
  %.not.i.i26 = icmp eq i32 %52, 64
  br i1 %.not.i.i26, label %.lr.ph.i.i25, label %ir_skip_empty_target_blocks.exit27

ir_skip_empty_target_blocks.exit27:               ; preds = %.lr.ph.i.i25, %ir_skip_empty_target_blocks.exit
  %.08.lcssa.i.i24 = phi i32 [ %38, %ir_skip_empty_target_blocks.exit ], [ %48, %.lr.ph.i.i25 ]
  store i32 %.08.lcssa.i.i24, ptr %3, align 4, !tbaa !35
  br label %80

53:                                               ; preds = %4
  br i1 %.not14.i.i, label %.lr.ph.i.i30, label %ir_skip_empty_target_blocks.exit32

.lr.ph.i.i30:                                     ; preds = %53, %.lr.ph.i.i30
  %54 = phi i64 [ %60, %.lr.ph.i.i30 ], [ %16, %53 ]
  %55 = getelementptr inbounds nuw %struct._ir_block, ptr %6, i64 %54, i32 3
  %56 = load i32, ptr %55, align 4, !tbaa !46
  %57 = zext i32 %56 to i64
  %58 = getelementptr inbounds nuw i32, ptr %9, i64 %57
  %59 = load i32, ptr %58, align 4, !tbaa !35
  %60 = zext i32 %59 to i64
  %61 = getelementptr inbounds nuw %struct._ir_block, ptr %6, i64 %60
  %62 = load i32, ptr %61, align 4, !tbaa !49
  %63 = and i32 %62, 70
  %.not.i.i31 = icmp eq i32 %63, 64
  br i1 %.not.i.i31, label %.lr.ph.i.i30, label %ir_skip_empty_target_blocks.exit32

ir_skip_empty_target_blocks.exit32:               ; preds = %.lr.ph.i.i30, %53
  %.08.lcssa.i.i29 = phi i32 [ %14, %53 ], [ %59, %.lr.ph.i.i30 ]
  store i32 %.08.lcssa.i.i29, ptr %3, align 4, !tbaa !35
  %64 = getelementptr inbounds nuw i8, ptr %13, i64 4
  %65 = load i32, ptr %64, align 4, !tbaa !35
  %66 = zext i32 %65 to i64
  %67 = getelementptr inbounds nuw %struct._ir_block, ptr %6, i64 %66
  %68 = load i32, ptr %67, align 4, !tbaa !49
  %69 = and i32 %68, 70
  %.not14.i.i33 = icmp eq i32 %69, 64
  br i1 %.not14.i.i33, label %.lr.ph.i.i35, label %ir_skip_empty_target_blocks.exit37

.lr.ph.i.i35:                                     ; preds = %ir_skip_empty_target_blocks.exit32, %.lr.ph.i.i35
  %70 = phi i64 [ %76, %.lr.ph.i.i35 ], [ %66, %ir_skip_empty_target_blocks.exit32 ]
  %71 = getelementptr inbounds nuw %struct._ir_block, ptr %6, i64 %70, i32 3
  %72 = load i32, ptr %71, align 4, !tbaa !46
  %73 = zext i32 %72 to i64
  %74 = getelementptr inbounds nuw i32, ptr %9, i64 %73
  %75 = load i32, ptr %74, align 4, !tbaa !35
  %76 = zext i32 %75 to i64
  %77 = getelementptr inbounds nuw %struct._ir_block, ptr %6, i64 %76
  %78 = load i32, ptr %77, align 4, !tbaa !49
  %79 = and i32 %78, 70
  %.not.i.i36 = icmp eq i32 %79, 64
  br i1 %.not.i.i36, label %.lr.ph.i.i35, label %ir_skip_empty_target_blocks.exit37

ir_skip_empty_target_blocks.exit37:               ; preds = %.lr.ph.i.i35, %ir_skip_empty_target_blocks.exit32
  %.08.lcssa.i.i34 = phi i32 [ %65, %ir_skip_empty_target_blocks.exit32 ], [ %75, %.lr.ph.i.i35 ]
  store i32 %.08.lcssa.i.i34, ptr %2, align 4, !tbaa !35
  br label %80

80:                                               ; preds = %ir_skip_empty_target_blocks.exit37, %ir_skip_empty_target_blocks.exit27
  ret void
}